; Function Attrs: nounwind uwtable
define dso_local void @pgstat_reset_of_kind(i32 noundef %0) local_unnamed_addr #0 {
  %2 = add i32 %0, -1
  %3 = icmp ult i32 %2, 12
  br i1 %3, label %4, label %7

4:                                                ; preds = %1
  %5 = zext nneg i32 %0 to i64
  %6 = getelementptr inbounds nuw [13 x %struct.PgStat_KindInfo], ptr @pgstat_kind_builtin_infos, i64 0, i64 %5
  br label %pgstat_get_kind_info.exit

7:                                                ; preds = %1
  %8 = add i32 %0, -128
  %9 = icmp ult i32 %8, 129
  br i1 %9, label %10, label %pgstat_get_kind_info.exit

10:                                               ; preds = %7
  %11 = load ptr, ptr @pgstat_kind_custom_infos, align 8
  %12 = icmp eq ptr %11, null
  br i1 %12, label %pgstat_get_kind_info.exit, label %13

13:                                               ; preds = %10
  %14 = zext nneg i32 %8 to i64
  %15 = getelementptr inbounds nuw ptr, ptr %11, i64 %14
  %16 = load ptr, ptr %15, align 8
  br label %pgstat_get_kind_info.exit

pgstat_get_kind_info.exit:                        ; preds = %4, %7, %10, %13
  %.0.i = phi ptr [ %6, %4 ], [ null, %10 ], [ null, %7 ], [ %16, %13 ]
  %17 = tail call i64 @GetCurrentTimestamp() #17
  %18 = load i8, ptr %.0.i, align 8
  %19 = trunc i8 %18 to i1
  br i1 %19, label %20, label %23

20:                                               ; preds = %pgstat_get_kind_info.exit
  %21 = getelementptr inbounds nuw i8, ptr %.0.i, i64 104
  %22 = load ptr, ptr %21, align 8
  tail call void %22(i64 noundef %17) #17
  br label %24

23:                                               ; preds = %pgstat_get_kind_info.exit
  tail call void @pgstat_reset_entries_of_kind(i32 noundef %0, i64 noundef %17) #17
  br label %24

24:                                               ; preds = %23, %20
  ret void
}